target datalayout = "e-m:e-p270:32:32-p271:32:32-p272:64:64-i64:64-i128:128-f80:128-n8:16:32:64-S128"
target triple = "x86_64-pc-linux-gnu"

%"struct.icu_77::units::Factor" = type { double, double, double, i8, [15 x i32] }

; Function Attrs: inlinehint mustprogress nounwind uwtable
define linkonce_odr void @_ZSt4swapIdENSt9enable_ifIXsr6__and_ISt6__not_ISt15__is_tuple_likeIT_EESt21is_move_constructibleIS3_ESt18is_move_assignableIS3_EEE5valueEvE4typeERS3_SC_(ptr noundef nonnull align 8 dereferenceable(8) %0, ptr noundef nonnull align 8 dereferenceable(8) %1) #2 comdat {
  %3 = alloca ptr, align 8
  %4 = alloca ptr, align 8
  %5 = alloca double, align 8
  store ptr %0, ptr %3, align 8, !tbaa !34
  store ptr %1, ptr %4, align 8, !tbaa !34
  call void @llvm.lifetime.start.p0(i64 8, ptr %5) #12
  %6 = load ptr, ptr %3, align 8, !tbaa !34
  %7 = load double, ptr %6, align 8, !tbaa !32
  store double %7, ptr %5, align 8, !tbaa !32
  %8 = load ptr, ptr %4, align 8, !tbaa !34
  %9 = load double, ptr %8, align 8, !tbaa !32
  %10 = load ptr, ptr %3, align 8, !tbaa !34
  store double %9, ptr %10, align 8, !tbaa !32
  %11 = load double, ptr %5, align 8, !tbaa !32
  %12 = load ptr, ptr %4, align 8, !tbaa !34
  store double %11, ptr %12, align 8, !tbaa !32
  call void @llvm.lifetime.end.p0(i64 8, ptr %5) #12
  ret void
}

; Function Attrs: inlinehint mustprogress nounwind uwtable
define linkonce_odr noundef double @_ZSt3powIdiEN9__gnu_cxx9__promoteIDTplcvNS1_IT_Xsr3std12__is_integerIS2_EE7__valueEE6__typeELi0EcvNS1_IT0_Xsr3std12__is_integerIS5_EE7__valueEE6__typeELi0EEXsr3std12__is_integerIS8_EE7__valueEE6__typeES2_S5_(double noundef %0, i32 noundef %1) #2 comdat {
  %3 = alloca double, align 8
  %4 = alloca i32, align 4
  store double %0, ptr %3, align 8, !tbaa !32
  store i32 %1, ptr %4, align 4, !tbaa !14
  %5 = load double, ptr %3, align 8, !tbaa !32
  %6 = load i32, ptr %4, align 4, !tbaa !14
  %7 = sitofp i32 %6 to double
  %8 = call double @pow(double noundef %5, double noundef %7) #12, !tbaa !14
  ret double %8
}

; Function Attrs: mustprogress uwtable
define void @_ZN6icu_775units6Factor5powerEi(ptr noundef nonnull align 8 dereferenceable(88) %0, i32 noundef %1) #1 align 2 {
  %3 = alloca ptr, align 8
  %4 = alloca i32, align 4
  %5 = alloca i32, align 4
  %6 = alloca i8, align 1
  store ptr %0, ptr %3, align 8, !tbaa !23
  store i32 %1, ptr %4, align 4, !tbaa !14
  %7 = load ptr, ptr %3, align 8
  call void @llvm.lifetime.start.p0(i64 4, ptr %5) #12
  store i32 0, ptr %5, align 4, !tbaa !14
  br label %8

8:                                                ; preds = %20, %2
  %9 = load i32, ptr %5, align 4, !tbaa !14
  %10 = icmp slt i32 %9, 15
  br i1 %10, label %12, label %11

11:                                               ; preds = %8
  call void @llvm.lifetime.end.p0(i64 4, ptr %5) #12
  br label %23

12:                                               ; preds = %8
  %13 = load i32, ptr %4, align 4, !tbaa !14
  %14 = getelementptr inbounds nuw %"struct.icu_77::units::Factor", ptr %7, i32 0, i32 4
  %15 = load i32, ptr %5, align 4, !tbaa !14
  %16 = sext i32 %15 to i64
  %17 = getelementptr inbounds [15 x i32], ptr %14, i64 0, i64 %16
  %18 = load i32, ptr %17, align 4, !tbaa !14
  %19 = mul nsw i32 %18, %13
  store i32 %19, ptr %17, align 4, !tbaa !14
  br label %20

20:                                               ; preds = %12
  %21 = load i32, ptr %5, align 4, !tbaa !14
  %22 = add nsw i32 %21, 1
  store i32 %22, ptr %5, align 4, !tbaa !14
  br label %8, !llvm.loop !37

23:                                               ; preds = %11
  call void @llvm.lifetime.start.p0(i64 1, ptr %6) #12
  %24 = load i32, ptr %4, align 4, !tbaa !14
  %25 = icmp slt i32 %24, 0
  %26 = zext i1 %25 to i8
  store i8 %26, ptr %6, align 1, !tbaa !38
  %27 = getelementptr inbounds nuw %"struct.icu_77::units::Factor", ptr %7, i32 0, i32 0
  %28 = load double, ptr %27, align 8, !tbaa !25
  %29 = load i32, ptr %4, align 4, !tbaa !14
  %30 = call i32 @llvm.abs.i32(i32 %29, i1 true)
  %31 = call noundef double @_ZSt3powIdiEN9__gnu_cxx9__promoteIDTplcvNS1_IT_Xsr3std12__is_integerIS2_EE7__valueEE6__typeELi0EcvNS1_IT0_Xsr3std12__is_integerIS5_EE7__valueEE6__typeELi0EEXsr3std12__is_integerIS8_EE7__valueEE6__typeES2_S5_(double noundef %28, i32 noundef %30)
  %32 = getelementptr inbounds nuw %"struct.icu_77::units::Factor", ptr %7, i32 0, i32 0
  store double %31, ptr %32, align 8, !tbaa !25
  %33 = getelementptr inbounds nuw %"struct.icu_77::units::Factor", ptr %7, i32 0, i32 1
  %34 = load double, ptr %33, align 8, !tbaa !29
  %35 = load i32, ptr %4, align 4, !tbaa !14
  %36 = call i32 @llvm.abs.i32(i32 %35, i1 true)
  %37 = call noundef double @_ZSt3powIdiEN9__gnu_cxx9__promoteIDTplcvNS1_IT_Xsr3std12__is_integerIS2_EE7__valueEE6__typeELi0EcvNS1_IT0_Xsr3std12__is_integerIS5_EE7__valueEE6__typeELi0EEXsr3std12__is_integerIS8_EE7__valueEE6__typeES2_S5_(double noundef %34, i32 noundef %36)
  %38 = getelementptr inbounds nuw %"struct.icu_77::units::Factor", ptr %7, i32 0, i32 1
  store double %37, ptr %38, align 8, !tbaa !29
  %39 = load i8, ptr %6, align 1, !tbaa !38, !range !39, !noundef !40
  %40 = trunc i8 %39 to i1
  br i1 %40, label %41, label %44

41:                                               ; preds = %23
  %42 = getelementptr inbounds nuw %"struct.icu_77::units::Factor", ptr %7, i32 0, i32 0
  %43 = getelementptr inbounds nuw %"struct.icu_77::units::Factor", ptr %7, i32 0, i32 1
  call void @_ZSt4swapIdENSt9enable_ifIXsr6__and_ISt6__not_ISt15__is_tuple_likeIT_EESt21is_move_constructibleIS3_ESt18is_move_assignableIS3_EEE5valueEvE4typeERS3_SC_(ptr noundef nonnull align 8 dereferenceable(8) %42, ptr noundef nonnull align 8 dereferenceable(8) %43) #12
  br label %44

44:                                               ; preds = %41, %23
  call void @llvm.lifetime.end.p0(i64 1, ptr %6) #12
  ret void
}