; Function Attrs: mustprogress nofree nounwind memory(write, argmem: readwrite) uwtable
define void @_ZN6icu_775units6Factor5powerEi(ptr noundef nonnull align 8 captures(none) dereferenceable(88) %0, i32 noundef %1) local_unnamed_addr #12 align 2 {
  %3 = getelementptr inbounds nuw i8, ptr %0, i64 28
  br label %13

4:                                                ; preds = %13
  %5 = icmp slt i32 %1, 0
  %6 = load double, ptr %0, align 8, !tbaa !15
  %7 = tail call i32 @llvm.abs.i32(i32 %1, i1 true)
  %8 = uitofp nneg i32 %7 to double
  %9 = tail call noundef double @pow(double noundef %6, double noundef %8) #21, !tbaa !12
  store double %9, ptr %0, align 8, !tbaa !15
  %10 = getelementptr inbounds nuw i8, ptr %0, i64 8
  %11 = load double, ptr %10, align 8, !tbaa !19
  %12 = tail call noundef double @pow(double noundef %11, double noundef %8) #21, !tbaa !12
  store double %12, ptr %10, align 8, !tbaa !19
  br i1 %5, label %17, label %18

13:                                               ; preds = %2, %13
  %indvars.iv = phi i64 [ 0, %2 ], [ %indvars.iv.next, %13 ]
  %14 = getelementptr inbounds nuw [15 x i32], ptr %3, i64 0, i64 %indvars.iv
  %15 = load i32, ptr %14, align 4, !tbaa !12
  %16 = mul nsw i32 %15, %1
  store i32 %16, ptr %14, align 4, !tbaa !12
  %indvars.iv.next = add nuw nsw i64 %indvars.iv, 1
  %exitcond.not = icmp eq i64 %indvars.iv.next, 15
  br i1 %exitcond.not, label %4, label %13, !llvm.loop !25

17:                                               ; preds = %4
  store double %12, ptr %0, align 8, !tbaa !20
  store double %9, ptr %10, align 8, !tbaa !20
  br label %18

18:                                               ; preds = %17, %4
  ret void
}